target datalayout = "e-m:e-p270:32:32-p271:32:32-p272:64:64-i64:64-i128:128-f80:128-n8:16:32:64-S128"
target triple = "x86_64-pc-linux-gnu"

; Function Attrs: noinline nounwind uwtable
define i32 @ma_strcpy_s(ptr noundef %0, i64 noundef %1, ptr noundef %2) #1 {
  %4 = alloca i32, align 4
  %5 = alloca ptr, align 8
  %6 = alloca i64, align 8
  %7 = alloca ptr, align 8
  %8 = alloca i64, align 8
  %9 = alloca i32, align 4
  store ptr %0, ptr %5, align 8, !tbaa !10
  store i64 %1, ptr %6, align 8, !tbaa !12
  store ptr %2, ptr %7, align 8, !tbaa !10
  call void @llvm.lifetime.start.p0(i64 8, ptr %8) #16
  %10 = load ptr, ptr %5, align 8, !tbaa !10
  %11 = icmp eq ptr %10, null
  br i1 %11, label %12, label %13

12:                                               ; preds = %3
  store i32 22, ptr %4, align 4
  store i32 1, ptr %9, align 4
  br label %59

13:                                               ; preds = %3
  %14 = load i64, ptr %6, align 8, !tbaa !12
  %15 = icmp eq i64 %14, 0
  br i1 %15, label %16, label %17

16:                                               ; preds = %13
  store i32 34, ptr %4, align 4
  store i32 1, ptr %9, align 4
  br label %59

17:                                               ; preds = %13
  %18 = load ptr, ptr %7, align 8, !tbaa !10
  %19 = icmp eq ptr %18, null
  br i1 %19, label %20, label %23

20:                                               ; preds = %17
  %21 = load ptr, ptr %5, align 8, !tbaa !10
  %22 = getelementptr inbounds i8, ptr %21, i64 0
  store i8 0, ptr %22, align 1, !tbaa !14
  store i32 22, ptr %4, align 4
  store i32 1, ptr %9, align 4
  br label %59

23:                                               ; preds = %17
  store i64 0, ptr %8, align 8, !tbaa !12
  br label %24

24:                                               ; preds = %45, %23
  %25 = load i64, ptr %8, align 8, !tbaa !12
  %26 = load i64, ptr %6, align 8, !tbaa !12
  %27 = icmp ult i64 %25, %26
  br i1 %27, label %28, label %35

28:                                               ; preds = %24
  %29 = load ptr, ptr %7, align 8, !tbaa !10
  %30 = load i64, ptr %8, align 8, !tbaa !12
  %31 = getelementptr inbounds nuw i8, ptr %29, i64 %30
  %32 = load i8, ptr %31, align 1, !tbaa !14
  %33 = sext i8 %32 to i32
  %34 = icmp ne i32 %33, 0
  br label %35

35:                                               ; preds = %28, %24
  %36 = phi i1 [ false, %24 ], [ %34, %28 ]
  br i1 %36, label %37, label %48

37:                                               ; preds = %35
  %38 = load ptr, ptr %7, align 8, !tbaa !10
  %39 = load i64, ptr %8, align 8, !tbaa !12
  %40 = getelementptr inbounds nuw i8, ptr %38, i64 %39
  %41 = load i8, ptr %40, align 1, !tbaa !14
  %42 = load ptr, ptr %5, align 8, !tbaa !10
  %43 = load i64, ptr %8, align 8, !tbaa !12
  %44 = getelementptr inbounds nuw i8, ptr %42, i64 %43
  store i8 %41, ptr %44, align 1, !tbaa !14
  br label %45

45:                                               ; preds = %37
  %46 = load i64, ptr %8, align 8, !tbaa !12
  %47 = add i64 %46, 1
  store i64 %47, ptr %8, align 8, !tbaa !12
  br label %24, !llvm.loop !15

48:                                               ; preds = %35
  %49 = load i64, ptr %8, align 8, !tbaa !12
  %50 = load i64, ptr %6, align 8, !tbaa !12
  %51 = icmp ult i64 %49, %50
  br i1 %51, label %52, label %56

52:                                               ; preds = %48
  %53 = load ptr, ptr %5, align 8, !tbaa !10
  %54 = load i64, ptr %8, align 8, !tbaa !12
  %55 = getelementptr inbounds nuw i8, ptr %53, i64 %54
  store i8 0, ptr %55, align 1, !tbaa !14
  store i32 0, ptr %4, align 4
  store i32 1, ptr %9, align 4
  br label %59

56:                                               ; preds = %48
  %57 = load ptr, ptr %5, align 8, !tbaa !10
  %58 = getelementptr inbounds i8, ptr %57, i64 0
  store i8 0, ptr %58, align 1, !tbaa !14
  store i32 34, ptr %4, align 4
  store i32 1, ptr %9, align 4
  br label %59

59:                                               ; preds = %56, %52, %20, %16, %12
  call void @llvm.lifetime.end.p0(i64 8, ptr %8) #16
  %60 = load i32, ptr %4, align 4
  ret i32 %60
}